target datalayout = "e-m:e-p270:32:32-p271:32:32-p272:64:64-i64:64-i128:128-f80:128-n8:16:32:64-S128"
target triple = "x86_64-pc-linux-gnu"

%struct.H5G_stab_fnd_ud_t = type { ptr, ptr, ptr }

@.str = private unnamed_addr constant [101 x i8] c"generated/home/dtcxzyw/WorkSpace/Projects/compilers/llvm-opt-benchmark/bench/hdf5/hdf5/src/H5Gstab.c\00", align 1
@H5E_SYM_g = external global i64, align 8
@__func__.H5G__stab_lookup_cb = private unnamed_addr constant [20 x i8] c"H5G__stab_lookup_cb\00", align 1
@H5E_CANTCONVERT_g = external global i64, align 8
@.str.31 = private unnamed_addr constant [45 x i8] c"unable to convert symbol table entry to link\00", align 1

; Function Attrs: nounwind uwtable
define internal i32 @H5G__stab_lookup_cb(ptr noundef %0, ptr noundef %1) #0 {
  %3 = alloca ptr, align 8
  %4 = alloca ptr, align 8
  %5 = alloca ptr, align 8
  %6 = alloca i32, align 4
  %7 = alloca i8, align 1
  store ptr %0, ptr %3, align 8
  store ptr %1, ptr %4, align 8
  %8 = load ptr, ptr %4, align 8
  store ptr %8, ptr %5, align 8
  store i32 0, ptr %6, align 4
  store i8 0, ptr %7, align 1
  %9 = load ptr, ptr %5, align 8
  %10 = getelementptr inbounds %struct.H5G_stab_fnd_ud_t, ptr %9, i32 0, i32 2
  %11 = load ptr, ptr %10, align 8
  %12 = icmp ne ptr %11, null
  br i1 %12, label %13, label %39

13:                                               ; preds = %2
  %14 = load ptr, ptr %3, align 8
  %15 = load ptr, ptr %5, align 8
  %16 = getelementptr inbounds %struct.H5G_stab_fnd_ud_t, ptr %15, i32 0, i32 1
  %17 = load ptr, ptr %16, align 8
  %18 = load ptr, ptr %5, align 8
  %19 = getelementptr inbounds %struct.H5G_stab_fnd_ud_t, ptr %18, i32 0, i32 2
  %20 = load ptr, ptr %19, align 8
  %21 = call i32 @H5G__ent_to_link(ptr noundef %14, ptr noundef %17, ptr noundef %20)
  %22 = icmp slt i32 %21, 0
  br i1 %22, label %23, label %38

23:                                               ; preds = %13
  br label %24

24:                                               ; preds = %23
  br label %25

25:                                               ; preds = %24
  br label %26

26:                                               ; preds = %25
  %27 = load i64, ptr @H5E_SYM_g, align 8
  %28 = load i64, ptr @H5E_CANTCONVERT_g, align 8
  %29 = call i32 (ptr, ptr, i32, i64, i64, ptr, ...) @H5E_printf_stack(ptr noundef @.str, ptr noundef @__func__.H5G__stab_lookup_cb, i32 noundef 774, i64 noundef %27, i64 noundef %28, ptr noundef @.str.31)
  br label %30

30:                                               ; preds = %26
  store i8 1, ptr %7, align 1
  %31 = load i8, ptr %7, align 1
  %32 = trunc i8 %31 to i1
  %33 = zext i1 %32 to i8
  store i8 %33, ptr %7, align 1
  br label %34

34:                                               ; preds = %30
  br label %35

35:                                               ; preds = %34
  store i32 -1, ptr %6, align 4
  br label %40

36:                                               ; No predecessors!
  br label %37

37:                                               ; preds = %36
  br label %38

38:                                               ; preds = %37, %13
  br label %39

39:                                               ; preds = %38, %2
  br label %40

40:                                               ; preds = %39, %35
  %41 = load i32, ptr %6, align 4
  ret i32 %41
}