; Function Attrs: nounwind uwtable
define internal range(i32 -1, 1) i32 @H5G__stab_lookup_cb(ptr noundef %0, ptr nocapture noundef readonly %1) #0 {
  %3 = getelementptr inbounds i8, ptr %1, i64 16
  %4 = load ptr, ptr %3, align 8
  %.not = icmp eq ptr %4, null
  br i1 %.not, label %14, label %5

5:                                                ; preds = %2
  %6 = getelementptr inbounds i8, ptr %1, i64 8
  %7 = load ptr, ptr %6, align 8
  %8 = tail call i32 @H5G__ent_to_link(ptr noundef %0, ptr noundef %7, ptr noundef nonnull %4) #6
  %9 = icmp slt i32 %8, 0
  br i1 %9, label %10, label %14

10:                                               ; preds = %5
  %11 = load i64, ptr @H5E_SYM_g, align 8
  %12 = load i64, ptr @H5E_CANTCONVERT_g, align 8
  %13 = tail call i32 (ptr, ptr, i32, i64, i64, ptr, ...) @H5E_printf_stack(ptr noundef nonnull @.str, ptr noundef nonnull @__func__.H5G__stab_lookup_cb, i32 noundef 774, i64 noundef %11, i64 noundef %12, ptr noundef nonnull @.str.31) #6
  br label %14

14:                                               ; preds = %2, %5, %10
  %.0 = phi i32 [ -1, %10 ], [ 0, %5 ], [ 0, %2 ]
  ret i32 %.0
}